target datalayout = "e-m:e-p270:32:32-p271:32:32-p272:64:64-i64:64-i128:128-f80:128-n8:16:32:64-S128"
target triple = "x86_64-pc-linux-gnu"

%"class.cv::UMat" = type { i32, i32, i32, i32, ptr, i32, ptr, i64, %"struct.cv::MatSize", %"struct.cv::MatStep" }
%"struct.cv::MatSize" = type { ptr }
%"struct.cv::MatStep" = type { ptr, [2 x i64] }
%"class.cv::_InputArray" = type { i32, ptr, %"class.cv::Size_" }
%"class.cv::Size_" = type { i32, i32 }
%"class.cv::_OutputArray" = type { %"class.cv::_InputArray" }
%"struct.cv::quality::QualityGMSD::_mat_data" = type { %"class.cv::UMat", %"class.cv::UMat" }
%"class.cv::Scalar_" = type { %"class.cv::Vec" }
%"class.cv::Vec" = type { %"class.cv::Matx.0" }
%"class.cv::Matx.0" = type { [4 x double] }
%"class.cv::quality::QualityGMSD" = type { %"class.cv::quality::QualityBase", %"struct.cv::quality::QualityGMSD::_mat_data" }
%"class.cv::quality::QualityBase" = type { %"class.cv::Algorithm", %"class.cv::UMat" }
%"class.cv::Algorithm" = type { ptr }
%"struct.std::pair" = type { %"class.cv::Scalar_", %"class.cv::UMat" }

@_ZN2cv7quality11QualityGMSD9_mat_dataC1ERKNS_11_InputArrayE = unnamed_addr alias void (ptr, ptr), ptr @_ZN2cv7quality11QualityGMSD9_mat_dataC2ERKNS_11_InputArrayE

; Function Attrs: inlinehint mustprogress nounwind uwtable
define linkonce_odr hidden void @_ZN2cv4MatxIdLi4ELi1EEC2EPKd(ptr noundef nonnull align 8 dereferenceable(32) %0, ptr noundef %1) unnamed_addr #7 comdat align 2 {
  %3 = alloca ptr, align 8
  %4 = alloca ptr, align 8
  %5 = alloca i32, align 4
  store ptr %0, ptr %3, align 8, !tbaa !68
  store ptr %1, ptr %4, align 8, !tbaa !44
  %6 = load ptr, ptr %3, align 8
  call void @llvm.lifetime.start.p0(i64 4, ptr %5) #8
  store i32 0, ptr %5, align 4, !tbaa !30
  br label %7

7:                                                ; preds = %21, %2
  %8 = load i32, ptr %5, align 4, !tbaa !30
  %9 = icmp slt i32 %8, 4
  br i1 %9, label %11, label %10

10:                                               ; preds = %7
  call void @llvm.lifetime.end.p0(i64 4, ptr %5) #8
  br label %24

11:                                               ; preds = %7
  %12 = load ptr, ptr %4, align 8, !tbaa !44
  %13 = load i32, ptr %5, align 4, !tbaa !30
  %14 = sext i32 %13 to i64
  %15 = getelementptr inbounds double, ptr %12, i64 %14
  %16 = load double, ptr %15, align 8, !tbaa !45
  %17 = getelementptr inbounds nuw %"class.cv::Matx.0", ptr %6, i32 0, i32 0
  %18 = load i32, ptr %5, align 4, !tbaa !30
  %19 = sext i32 %18 to i64
  %20 = getelementptr inbounds [4 x double], ptr %17, i64 0, i64 %19
  store double %16, ptr %20, align 8, !tbaa !45
  br label %21

21:                                               ; preds = %11
  %22 = load i32, ptr %5, align 4, !tbaa !30
  %23 = add nsw i32 %22, 1
  store i32 %23, ptr %5, align 4, !tbaa !30
  br label %7, !llvm.loop !95

24:                                               ; preds = %10
  ret void
}

; Function Attrs: inlinehint mustprogress nounwind uwtable
define linkonce_odr hidden void @_ZN2cv5Size_IiEC2Ev(ptr noundef nonnull align 4 dereferenceable(8) %0) unnamed_addr #7 comdat align 2 {
  %2 = alloca ptr, align 8
  store ptr %0, ptr %2, align 8, !tbaa !28
  %3 = load ptr, ptr %2, align 8
  %4 = getelementptr inbounds nuw %"class.cv::Size_", ptr %3, i32 0, i32 0
  store i32 0, ptr %4, align 4, !tbaa !32
  %5 = getelementptr inbounds nuw %"class.cv::Size_", ptr %3, i32 0, i32 1
  store i32 0, ptr %5, align 4, !tbaa !34
  ret void
}

; Function Attrs: inlinehint mustprogress uwtable
define linkonce_odr hidden void @_ZN2cv3VecIdLi4EEC2ERKS1_(ptr noundef nonnull align 8 dereferenceable(32) %0, ptr noundef nonnull align 8 dereferenceable(32) %1) unnamed_addr #6 comdat align 2 {
  %3 = alloca ptr, align 8
  %4 = alloca ptr, align 8
  store ptr %0, ptr %3, align 8, !tbaa !84
  store ptr %1, ptr %4, align 8, !tbaa !84
  %5 = load ptr, ptr %3, align 8
  %6 = load ptr, ptr %4, align 8, !tbaa !84
  %7 = getelementptr inbounds nuw %"class.cv::Matx.0", ptr %6, i32 0, i32 0
  %8 = getelementptr inbounds [4 x double], ptr %7, i64 0, i64 0
  call void @_ZN2cv4MatxIdLi4ELi1EEC2EPKd(ptr noundef nonnull align 8 dereferenceable(32) %5, ptr noundef %8)
  ret void
}

; Function Attrs: inlinehint mustprogress nounwind uwtable
define linkonce_odr hidden void @_ZN2cv11_InputArray4initEiPKv(ptr noundef nonnull align 8 dereferenceable(24) %0, i32 noundef %1, ptr noundef %2) #7 comdat align 2 {
  %4 = alloca ptr, align 8
  %5 = alloca i32, align 4
  %6 = alloca ptr, align 8
  store ptr %0, ptr %4, align 8, !tbaa !24
  store i32 %1, ptr %5, align 4, !tbaa !30
  store ptr %2, ptr %6, align 8, !tbaa !78
  %7 = load ptr, ptr %4, align 8
  %8 = load i32, ptr %5, align 4, !tbaa !30
  %9 = getelementptr inbounds nuw %"class.cv::_InputArray", ptr %7, i32 0, i32 0
  store i32 %8, ptr %9, align 8, !tbaa !79
  %10 = load ptr, ptr %6, align 8, !tbaa !78
  %11 = getelementptr inbounds nuw %"class.cv::_InputArray", ptr %7, i32 0, i32 1
  store ptr %10, ptr %11, align 8, !tbaa !81
  ret void
}

; Function Attrs: inlinehint mustprogress uwtable
define linkonce_odr hidden void @_ZN2cv11_InputArrayC2Ev(ptr noundef nonnull align 8 dereferenceable(24) %0) unnamed_addr #6 comdat align 2 {
  %2 = alloca ptr, align 8
  store ptr %0, ptr %2, align 8, !tbaa !24
  %3 = load ptr, ptr %2, align 8
  %4 = getelementptr inbounds nuw %"class.cv::_InputArray", ptr %3, i32 0, i32 2
  call void @_ZN2cv5Size_IiEC2Ev(ptr noundef nonnull align 4 dereferenceable(8) %4)
  call void @_ZN2cv11_InputArray4initEiPKv(ptr noundef nonnull align 8 dereferenceable(24) %3, i32 noundef 0, ptr noundef null)
  ret void
}

; Function Attrs: inlinehint mustprogress nounwind uwtable
define linkonce_odr hidden void @_ZNSt4pairIN2cv7Scalar_IdEENS0_4UMatEED2Ev(ptr noundef nonnull align 8 dereferenceable(112) %0) unnamed_addr #7 comdat align 2 {
  %2 = alloca ptr, align 8
  store ptr %0, ptr %2, align 8, !tbaa !66
  %3 = load ptr, ptr %2, align 8
  %4 = getelementptr inbounds nuw %"struct.std::pair", ptr %3, i32 0, i32 1
  call void @_ZN2cv4UMatD1Ev(ptr noundef nonnull align 8 dereferenceable(80) %4) #8
  ret void
}

; Function Attrs: inlinehint mustprogress uwtable
define linkonce_odr hidden void @_ZN2cv7Scalar_IdEC2ERKS1_(ptr noundef nonnull align 8 dereferenceable(32) %0, ptr noundef nonnull align 8 dereferenceable(32) %1) unnamed_addr #6 comdat align 2 {
  %3 = alloca ptr, align 8
  %4 = alloca ptr, align 8
  store ptr %0, ptr %3, align 8, !tbaa !64
  store ptr %1, ptr %4, align 8, !tbaa !64
  %5 = load ptr, ptr %3, align 8
  %6 = load ptr, ptr %4, align 8, !tbaa !64
  call void @_ZN2cv3VecIdLi4EEC2ERKS1_(ptr noundef nonnull align 8 dereferenceable(32) %5, ptr noundef nonnull align 8 dereferenceable(32) %6)
  ret void
}

; Function Attrs: inlinehint mustprogress nounwind uwtable
define linkonce_odr hidden void @_ZN2cv11_InputArrayD2Ev(ptr noundef nonnull align 8 dereferenceable(24) %0) unnamed_addr #7 comdat align 2 {
  %2 = alloca ptr, align 8
  store ptr %0, ptr %2, align 8, !tbaa !24
  ret void
}

; Function Attrs: inlinehint mustprogress uwtable
define linkonce_odr hidden void @_ZN2cv12_OutputArrayC2ERNS_4UMatE(ptr noundef nonnull align 8 dereferenceable(24) %0, ptr noundef nonnull align 8 dereferenceable(80) %1) unnamed_addr #6 comdat align 2 {
  %3 = alloca ptr, align 8
  %4 = alloca ptr, align 8
  store ptr %0, ptr %3, align 8, !tbaa !26
  store ptr %1, ptr %4, align 8, !tbaa !8
  %5 = load ptr, ptr %3, align 8
  call void @_ZN2cv11_InputArrayC2Ev(ptr noundef nonnull align 8 dereferenceable(24) %5)
  %6 = load ptr, ptr %4, align 8, !tbaa !8
  call void @_ZN2cv11_InputArray4initEiPKv(ptr noundef nonnull align 8 dereferenceable(24) %5, i32 noundef 34209792, ptr noundef %6)
  ret void
}

; Function Attrs: inlinehint mustprogress nounwind uwtable
define linkonce_odr hidden void @_ZN2cv7quality11QualityGMSD9_mat_dataD2Ev(ptr noundef nonnull align 8 dereferenceable(160) %0) unnamed_addr #7 comdat align 2 {
  %2 = alloca ptr, align 8
  store ptr %0, ptr %2, align 8, !tbaa !3
  %3 = load ptr, ptr %2, align 8
  %4 = getelementptr inbounds nuw %"struct.cv::quality::QualityGMSD::_mat_data", ptr %3, i32 0, i32 1
  call void @_ZN2cv4UMatD1Ev(ptr noundef nonnull align 8 dereferenceable(80) %4) #8
  %5 = getelementptr inbounds nuw %"struct.cv::quality::QualityGMSD::_mat_data", ptr %3, i32 0, i32 0
  call void @_ZN2cv4UMatD1Ev(ptr noundef nonnull align 8 dereferenceable(80) %5) #8
  ret void
}

; Function Attrs: mustprogress uwtable
define void @_ZN2cv7quality11QualityGMSD7computeERKNS_11_InputArrayE(ptr dead_on_unwind noalias writable sret(%"class.cv::Scalar_") align 8 %0, ptr noundef nonnull align 8 dereferenceable(248) %1, ptr noundef nonnull align 8 dereferenceable(24) %2) unnamed_addr #0 align 2 personality ptr @__gxx_personality_v0 {
  %4 = alloca ptr, align 8
  %5 = alloca ptr, align 8
  %6 = alloca ptr, align 8
  %7 = alloca %"struct.std::pair", align 8
  %8 = alloca %"struct.cv::quality::QualityGMSD::_mat_data", align 8
  %9 = alloca ptr, align 8
  %10 = alloca i32, align 4
  %11 = alloca %"class.cv::_OutputArray", align 8
  store ptr %0, ptr %4, align 8
  store ptr %1, ptr %5, align 8, !tbaa !58
  store ptr %2, ptr %6, align 8, !tbaa !24
  %12 = load ptr, ptr %5, align 8
  call void @llvm.lifetime.start.p0(i64 112, ptr %7) #8
  %13 = getelementptr inbounds nuw %"class.cv::quality::QualityGMSD", ptr %12, i32 0, i32 1
  call void @llvm.lifetime.start.p0(i64 160, ptr %8) #8
  %14 = load ptr, ptr %6, align 8, !tbaa !24
  call void @_ZN2cv7quality11QualityGMSD9_mat_dataC1ERKNS_11_InputArrayE(ptr noundef nonnull align 8 dereferenceable(160) %8, ptr noundef nonnull align 8 dereferenceable(24) %14)
  invoke void @_ZN2cv7quality11QualityGMSD9_mat_data7computeERKS2_S4_(ptr dead_on_unwind writable sret(%"struct.std::pair") align 8 %7, ptr noundef nonnull align 8 dereferenceable(160) %13, ptr noundef nonnull align 8 dereferenceable(160) %8)
          to label %15 unwind label %22

15:                                               ; preds = %3
  call void @_ZN2cv7quality11QualityGMSD9_mat_dataD2Ev(ptr noundef nonnull align 8 dereferenceable(160) %8) #8
  call void @llvm.lifetime.end.p0(i64 160, ptr %8) #8
  call void @llvm.lifetime.start.p0(i64 24, ptr %11) #8
  %16 = getelementptr inbounds nuw %"class.cv::quality::QualityBase", ptr %12, i32 0, i32 1
  invoke void @_ZN2cv12_OutputArrayC2ERNS_4UMatE(ptr noundef nonnull align 8 dereferenceable(24) %11, ptr noundef nonnull align 8 dereferenceable(80) %16)
          to label %17 unwind label %26

17:                                               ; preds = %15
  %18 = getelementptr inbounds nuw %"struct.std::pair", ptr %7, i32 0, i32 1
  invoke void @_ZNK2cv12_OutputArray6assignERKNS_4UMatE(ptr noundef nonnull align 8 dereferenceable(24) %11, ptr noundef nonnull align 8 dereferenceable(80) %18)
          to label %19 unwind label %30

19:                                               ; preds = %17
  call void @_ZN2cv11_InputArrayD2Ev(ptr noundef nonnull align 8 dereferenceable(24) %11) #8
  call void @llvm.lifetime.end.p0(i64 24, ptr %11) #8
  %20 = getelementptr inbounds nuw %"struct.std::pair", ptr %7, i32 0, i32 0
  invoke void @_ZN2cv7Scalar_IdEC2ERKS1_(ptr noundef nonnull align 8 dereferenceable(32) %0, ptr noundef nonnull align 8 dereferenceable(32) %20)
          to label %21 unwind label %35

21:                                               ; preds = %19
  call void @_ZNSt4pairIN2cv7Scalar_IdEENS0_4UMatEED2Ev(ptr noundef nonnull align 8 dereferenceable(112) %7) #8
  call void @llvm.lifetime.end.p0(i64 112, ptr %7) #8
  ret void

22:                                               ; preds = %3
  %23 = landingpad { ptr, i32 }
          cleanup
  %24 = extractvalue { ptr, i32 } %23, 0
  store ptr %24, ptr %9, align 8
  %25 = extractvalue { ptr, i32 } %23, 1
  store i32 %25, ptr %10, align 4
  call void @_ZN2cv7quality11QualityGMSD9_mat_dataD2Ev(ptr noundef nonnull align 8 dereferenceable(160) %8) #8
  call void @llvm.lifetime.end.p0(i64 160, ptr %8) #8
  br label %40

26:                                               ; preds = %15
  %27 = landingpad { ptr, i32 }
          cleanup
  %28 = extractvalue { ptr, i32 } %27, 0
  store ptr %28, ptr %9, align 8
  %29 = extractvalue { ptr, i32 } %27, 1
  store i32 %29, ptr %10, align 4
  br label %34

30:                                               ; preds = %17
  %31 = landingpad { ptr, i32 }
          cleanup
  %32 = extractvalue { ptr, i32 } %31, 0
  store ptr %32, ptr %9, align 8
  %33 = extractvalue { ptr, i32 } %31, 1
  store i32 %33, ptr %10, align 4
  call void @_ZN2cv11_InputArrayD2Ev(ptr noundef nonnull align 8 dereferenceable(24) %11) #8
  br label %34

34:                                               ; preds = %30, %26
  call void @llvm.lifetime.end.p0(i64 24, ptr %11) #8
  br label %39

35:                                               ; preds = %19
  %36 = landingpad { ptr, i32 }
          cleanup
  %37 = extractvalue { ptr, i32 } %36, 0
  store ptr %37, ptr %9, align 8
  %38 = extractvalue { ptr, i32 } %36, 1
  store i32 %38, ptr %10, align 4
  br label %39

39:                                               ; preds = %35, %34
  call void @_ZNSt4pairIN2cv7Scalar_IdEENS0_4UMatEED2Ev(ptr noundef nonnull align 8 dereferenceable(112) %7) #8
  br label %40

40:                                               ; preds = %39, %22
  call void @llvm.lifetime.end.p0(i64 112, ptr %7) #8
  br label %41

41:                                               ; preds = %40
  %42 = load ptr, ptr %9, align 8
  %43 = load i32, ptr %10, align 4
  %44 = insertvalue { ptr, i32 } poison, ptr %42, 0
  %45 = insertvalue { ptr, i32 } %44, i32 %43, 1
  resume { ptr, i32 } %45
}