; Function Attrs: mustprogress uwtable
define void @_ZN2cv7quality11QualityGMSD7computeERKNS_11_InputArrayE(ptr dead_on_unwind noalias writable writeonly sret(%"class.cv::Scalar_") align 8 captures(none) %0, ptr noundef nonnull align 8 dereferenceable(248) %1, ptr noundef nonnull align 8 dereferenceable(24) %2) unnamed_addr #0 align 2 personality ptr @__gxx_personality_v0 {
  %4 = alloca %"struct.std::pair", align 8
  %5 = alloca %"struct.cv::quality::QualityGMSD::_mat_data", align 8
  %6 = alloca %"class.cv::_OutputArray", align 8
  call void @llvm.lifetime.start.p0(i64 112, ptr nonnull %4) #18
  %7 = getelementptr inbounds nuw i8, ptr %1, i64 88
  call void @llvm.lifetime.start.p0(i64 160, ptr nonnull %5) #18
  call void @_ZN2cv7quality11QualityGMSD9_mat_dataC1ERKNS_11_InputArrayE(ptr noundef nonnull align 8 dereferenceable(160) %5, ptr noundef nonnull align 8 dereferenceable(24) %2)
  invoke void @_ZN2cv7quality11QualityGMSD9_mat_data7computeERKS2_S4_(ptr dead_on_unwind nonnull writable sret(%"struct.std::pair") align 8 %4, ptr noundef nonnull align 8 dereferenceable(160) %7, ptr noundef nonnull align 8 dereferenceable(160) %5)
          to label %8 unwind label %14

8:                                                ; preds = %3
  %9 = getelementptr inbounds nuw i8, ptr %5, i64 80
  call void @_ZN2cv4UMatD1Ev(ptr noundef nonnull align 8 dereferenceable(80) %9) #18
  call void @_ZN2cv4UMatD1Ev(ptr noundef nonnull align 8 dereferenceable(160) %5) #18
  call void @llvm.lifetime.end.p0(i64 160, ptr nonnull %5) #18
  call void @llvm.lifetime.start.p0(i64 24, ptr nonnull %6) #18
  %10 = getelementptr inbounds nuw i8, ptr %1, i64 8
  %11 = getelementptr inbounds nuw i8, ptr %6, i64 8
  %12 = getelementptr inbounds nuw i8, ptr %6, i64 16
  store i64 0, ptr %12, align 8
  store i32 34209792, ptr %6, align 8, !tbaa !16
  store ptr %10, ptr %11, align 8, !tbaa !18
  %13 = getelementptr inbounds nuw i8, ptr %4, i64 32
  invoke void @_ZNK2cv12_OutputArray6assignERKNS_4UMatE(ptr noundef nonnull align 8 dereferenceable(24) %6, ptr noundef nonnull align 8 dereferenceable(80) %13)
          to label %_ZN2cv7Scalar_IdEC2ERKS1_.exit unwind label %17

_ZN2cv7Scalar_IdEC2ERKS1_.exit:                   ; preds = %8
  call void @llvm.lifetime.end.p0(i64 24, ptr nonnull %6) #18
  call void @llvm.memcpy.p0.p0.i64(ptr noundef nonnull align 8 dereferenceable(32) %0, ptr noundef nonnull align 8 dereferenceable(32) %4, i64 32, i1 false), !tbaa !20
  call void @_ZN2cv4UMatD1Ev(ptr noundef nonnull align 8 dereferenceable(80) %13) #18
  call void @llvm.lifetime.end.p0(i64 112, ptr nonnull %4) #18
  ret void

14:                                               ; preds = %3
  %15 = landingpad { ptr, i32 }
          cleanup
  %16 = getelementptr inbounds nuw i8, ptr %5, i64 80
  call void @_ZN2cv4UMatD1Ev(ptr noundef nonnull align 8 dereferenceable(80) %16) #18
  call void @_ZN2cv4UMatD1Ev(ptr noundef nonnull align 8 dereferenceable(160) %5) #18
  call void @llvm.lifetime.end.p0(i64 160, ptr nonnull %5) #18
  br label %19

17:                                               ; preds = %8
  %18 = landingpad { ptr, i32 }
          cleanup
  call void @llvm.lifetime.end.p0(i64 24, ptr nonnull %6) #18
  call void @_ZN2cv4UMatD1Ev(ptr noundef nonnull align 8 dereferenceable(80) %13) #18
  br label %19

19:                                               ; preds = %17, %14
  %.pn7.pn = phi { ptr, i32 } [ %18, %17 ], [ %15, %14 ]
  call void @llvm.lifetime.end.p0(i64 112, ptr nonnull %4) #18
  resume { ptr, i32 } %.pn7.pn
}